target datalayout = "e-m:e-p270:32:32-p271:32:32-p272:64:64-i64:64-i128:128-f80:128-n8:16:32:64-S128"
target triple = "x86_64-pc-linux-gnu"

%"class.google::protobuf::internal::ExplicitlyConstructed" = type { %"union.google::protobuf::internal::ExplicitlyConstructed<std::__cxx11::basic_string<char>>::AlignedUnion" }
%"union.google::protobuf::internal::ExplicitlyConstructed<std::__cxx11::basic_string<char>>::AlignedUnion" = type { i64, [24 x i8] }
%"class.google::protobuf::io::CodedInputStream" = type { ptr, ptr, ptr, i32, i32, i32, i8, i8, i32, i32, i32, i32, i32, ptr, ptr }
%"class.std::__cxx11::basic_string" = type { %"struct.std::__cxx11::basic_string<char>::_Alloc_hider", i64, %union.anon }
%"struct.std::__cxx11::basic_string<char>::_Alloc_hider" = type { ptr }
%union.anon = type { i64, [8 x i8] }
%"class.std::allocator" = type { i8 }

@_ZN6google8protobuf8internal26fixed_address_empty_stringB5cxx11E = external global %"class.google::protobuf::internal::ExplicitlyConstructed", align 8

; Function Attrs: mustprogress nounwind uwtable
define linkonce_odr hidden void @_ZNSt15__new_allocatorIcEC2ERKS0_(ptr noundef nonnull align 1 dereferenceable(1) %0, ptr noundef nonnull align 1 dereferenceable(1) %1) unnamed_addr #8 comdat align 2 {
  %3 = alloca ptr, align 8
  %4 = alloca ptr, align 8
  store ptr %0, ptr %3, align 8, !tbaa !116
  store ptr %1, ptr %4, align 8, !tbaa !116
  ret void
}

; Function Attrs: inlinehint mustprogress nounwind uwtable
define linkonce_odr hidden void @_ZN6google8protobuf2io16CodedInputStream7AdvanceEi(ptr noundef nonnull align 8 dereferenceable(80) %0, i32 noundef %1) #5 comdat align 2 {
  %3 = alloca ptr, align 8
  %4 = alloca i32, align 4
  store ptr %0, ptr %3, align 8, !tbaa !3
  store i32 %1, ptr %4, align 4, !tbaa !8
  %5 = load ptr, ptr %3, align 8
  %6 = load i32, ptr %4, align 4, !tbaa !8
  %7 = getelementptr inbounds nuw %"class.google::protobuf::io::CodedInputStream", ptr %5, i32 0, i32 0
  %8 = load ptr, ptr %7, align 8, !tbaa !12
  %9 = sext i32 %6 to i64
  %10 = getelementptr inbounds i8, ptr %8, i64 %9
  store ptr %10, ptr %7, align 8, !tbaa !12
  ret void
}

; Function Attrs: mustprogress nounwind uwtable
define linkonce_odr hidden void @_ZNSt11char_traitsIcE6assignERcRKc(ptr noundef nonnull align 1 dereferenceable(1) %0, ptr noundef nonnull align 1 dereferenceable(1) %1) #8 comdat align 2 {
  %3 = alloca ptr, align 8
  %4 = alloca ptr, align 8
  store ptr %0, ptr %3, align 8, !tbaa !78
  store ptr %1, ptr %4, align 8, !tbaa !78
  %5 = load ptr, ptr %4, align 8, !tbaa !78
  %6 = load i8, ptr %5, align 1, !tbaa !20
  %7 = load ptr, ptr %3, align 8, !tbaa !78
  store i8 %6, ptr %7, align 1, !tbaa !20
  ret void
}

; Function Attrs: mustprogress nounwind uwtable
define available_externally noundef ptr @_ZNKSt7__cxx1112basic_stringIcSt11char_traitsIcESaIcEE7_M_dataEv(ptr noundef nonnull align 8 dereferenceable(32) %0) #8 align 2 {
  %2 = alloca ptr, align 8
  store ptr %0, ptr %2, align 8, !tbaa !43
  %3 = load ptr, ptr %2, align 8
  %4 = getelementptr inbounds nuw %"class.std::__cxx11::basic_string", ptr %3, i32 0, i32 0
  %5 = getelementptr inbounds nuw %"struct.std::__cxx11::basic_string<char>::_Alloc_hider", ptr %4, i32 0, i32 0
  %6 = load ptr, ptr %5, align 8, !tbaa !118
  ret ptr %6
}

; Function Attrs: mustprogress nounwind uwtable
define available_externally void @_ZNSt7__cxx1112basic_stringIcSt11char_traitsIcESaIcEE9_M_lengthEm(ptr noundef nonnull align 8 dereferenceable(32) %0, i64 noundef %1) #8 align 2 {
  %3 = alloca ptr, align 8
  %4 = alloca i64, align 8
  store ptr %0, ptr %3, align 8, !tbaa !43
  store i64 %1, ptr %4, align 8, !tbaa !21
  %5 = load ptr, ptr %3, align 8
  %6 = load i64, ptr %4, align 8, !tbaa !21
  %7 = getelementptr inbounds nuw %"class.std::__cxx11::basic_string", ptr %5, i32 0, i32 1
  store i64 %6, ptr %7, align 8, !tbaa !71
  ret void
}

; Function Attrs: mustprogress nounwind uwtable
define available_externally void @_ZNSaIcEC2ERKS_(ptr noundef nonnull align 1 dereferenceable(1) %0, ptr noundef nonnull align 1 dereferenceable(1) %1) unnamed_addr #8 align 2 {
  %3 = alloca ptr, align 8
  %4 = alloca ptr, align 8
  store ptr %0, ptr %3, align 8, !tbaa !82
  store ptr %1, ptr %4, align 8, !tbaa !82
  %5 = load ptr, ptr %3, align 8
  %6 = load ptr, ptr %4, align 8, !tbaa !82
  call void @_ZNSt15__new_allocatorIcEC2ERKS0_(ptr noundef nonnull align 1 dereferenceable(1) %5, ptr noundef nonnull align 1 dereferenceable(1) %6) #3
  ret void
}

; Function Attrs: mustprogress nounwind uwtable
define linkonce_odr hidden void @_ZNSt15__new_allocatorIcEC2Ev(ptr noundef nonnull align 1 dereferenceable(1) %0) unnamed_addr #8 comdat align 2 {
  %2 = alloca ptr, align 8
  store ptr %0, ptr %2, align 8, !tbaa !116
  ret void
}

; Function Attrs: mustprogress nounwind uwtable
define linkonce_odr hidden noundef ptr @_ZNSt19__ptr_traits_ptr_toIPccLb0EE10pointer_toERc(ptr noundef nonnull align 1 dereferenceable(1) %0) #8 comdat align 2 {
  %2 = alloca ptr, align 8
  store ptr %0, ptr %2, align 8, !tbaa !78
  %3 = load ptr, ptr %2, align 8, !tbaa !78
  ret ptr %3
}

; Function Attrs: inlinehint mustprogress uwtable
define linkonce_odr hidden noundef zeroext i1 @_ZN6google8protobuf2io16CodedInputStream12ReadVarint32EPj(ptr noundef nonnull align 8 dereferenceable(80) %0, ptr noundef %1) #7 comdat align 2 {
  %3 = alloca i1, align 1
  %4 = alloca ptr, align 8
  %5 = alloca ptr, align 8
  %6 = alloca i32, align 4
  %7 = alloca i32, align 4
  %8 = alloca i64, align 8
  store ptr %0, ptr %4, align 8, !tbaa !3
  store ptr %1, ptr %5, align 8, !tbaa !28
  %9 = load ptr, ptr %4, align 8
  call void @llvm.lifetime.start.p0(i64 4, ptr %6) #3
  store i32 0, ptr %6, align 4, !tbaa !8
  %10 = getelementptr inbounds nuw %"class.google::protobuf::io::CodedInputStream", ptr %9, i32 0, i32 0
  %11 = load ptr, ptr %10, align 8, !tbaa !12
  %12 = getelementptr inbounds nuw %"class.google::protobuf::io::CodedInputStream", ptr %9, i32 0, i32 1
  %13 = load ptr, ptr %12, align 8, !tbaa !19
  %14 = icmp ult ptr %11, %13
  %15 = zext i1 %14 to i64
  %16 = call i64 @llvm.expect.i64(i64 %15, i64 1)
  %17 = icmp ne i64 %16, 0
  br i1 %17, label %18, label %29

18:                                               ; preds = %2
  %19 = getelementptr inbounds nuw %"class.google::protobuf::io::CodedInputStream", ptr %9, i32 0, i32 0
  %20 = load ptr, ptr %19, align 8, !tbaa !12
  %21 = load i8, ptr %20, align 1, !tbaa !20
  %22 = zext i8 %21 to i32
  store i32 %22, ptr %6, align 4, !tbaa !8
  %23 = load i32, ptr %6, align 4, !tbaa !8
  %24 = icmp ult i32 %23, 128
  br i1 %24, label %25, label %28

25:                                               ; preds = %18
  %26 = load i32, ptr %6, align 4, !tbaa !8
  %27 = load ptr, ptr %5, align 8, !tbaa !28
  store i32 %26, ptr %27, align 4, !tbaa !8
  call void @_ZN6google8protobuf2io16CodedInputStream7AdvanceEi(ptr noundef nonnull align 8 dereferenceable(80) %9, i32 noundef 1)
  store i1 true, ptr %3, align 1
  store i32 1, ptr %7, align 4
  br label %37

28:                                               ; preds = %18
  br label %29

29:                                               ; preds = %28, %2
  call void @llvm.lifetime.start.p0(i64 8, ptr %8) #3
  %30 = load i32, ptr %6, align 4, !tbaa !8
  %31 = call noundef i64 @_ZN6google8protobuf2io16CodedInputStream20ReadVarint32FallbackEj(ptr noundef nonnull align 8 dereferenceable(80) %9, i32 noundef %30)
  store i64 %31, ptr %8, align 8, !tbaa !21
  %32 = load i64, ptr %8, align 8, !tbaa !21
  %33 = trunc i64 %32 to i32
  %34 = load ptr, ptr %5, align 8, !tbaa !28
  store i32 %33, ptr %34, align 4, !tbaa !8
  %35 = load i64, ptr %8, align 8, !tbaa !21
  %36 = icmp sge i64 %35, 0
  store i1 %36, ptr %3, align 1
  store i32 1, ptr %7, align 4
  call void @llvm.lifetime.end.p0(i64 8, ptr %8) #3
  br label %37

37:                                               ; preds = %29, %25
  call void @llvm.lifetime.end.p0(i64 4, ptr %6) #3
  %38 = load i1, ptr %3, align 1
  ret i1 %38
}

; Function Attrs: noinline noreturn nounwind uwtable
define linkonce_odr hidden void @__clang_call_terminate(ptr noundef %0) #16 comdat {
  %2 = call ptr @__cxa_begin_catch(ptr %0) #3
  call void @_ZSt9terminatev() #18
  unreachable
}

; Function Attrs: mustprogress uwtable
define available_externally void @_ZNSt7__cxx1112basic_stringIcSt11char_traitsIcESaIcEE13_M_set_lengthEm(ptr noundef nonnull align 8 dereferenceable(32) %0, i64 noundef %1) #4 align 2 {
  %3 = alloca ptr, align 8
  %4 = alloca i64, align 8
  %5 = alloca i8, align 1
  store ptr %0, ptr %3, align 8, !tbaa !43
  store i64 %1, ptr %4, align 8, !tbaa !21
  %6 = load ptr, ptr %3, align 8
  %7 = load i64, ptr %4, align 8, !tbaa !21
  call void @_ZNSt7__cxx1112basic_stringIcSt11char_traitsIcESaIcEE9_M_lengthEm(ptr noundef nonnull align 8 dereferenceable(32) %6, i64 noundef %7)
  %8 = call noundef ptr @_ZNKSt7__cxx1112basic_stringIcSt11char_traitsIcESaIcEE7_M_dataEv(ptr noundef nonnull align 8 dereferenceable(32) %6)
  %9 = load i64, ptr %4, align 8, !tbaa !21
  %10 = getelementptr inbounds nuw i8, ptr %8, i64 %9
  call void @llvm.lifetime.start.p0(i64 1, ptr %5) #3
  store i8 0, ptr %5, align 1, !tbaa !20
  call void @_ZNSt11char_traitsIcE6assignERcRKc(ptr noundef nonnull align 1 dereferenceable(1) %10, ptr noundef nonnull align 1 dereferenceable(1) %5) #3
  call void @llvm.lifetime.end.p0(i64 1, ptr %5) #3
  ret void
}

; Function Attrs: alwaysinline mustprogress nounwind uwtable
define available_externally noundef ptr @_ZNSt7__cxx1112basic_stringIcSt11char_traitsIcESaIcEE17_M_use_local_dataEv(ptr noundef nonnull align 8 dereferenceable(32) %0) #13 align 2 {
  %2 = alloca ptr, align 8
  store ptr %0, ptr %2, align 8, !tbaa !43
  %3 = load ptr, ptr %2, align 8
  %4 = call noundef ptr @_ZNSt7__cxx1112basic_stringIcSt11char_traitsIcESaIcEE13_M_local_dataEv(ptr noundef nonnull align 8 dereferenceable(32) %3)
  ret ptr %4
}

; Function Attrs: mustprogress nounwind uwtable
define linkonce_odr hidden void @_ZNSt15__new_allocatorIcED2Ev(ptr noundef nonnull align 1 dereferenceable(1) %0) unnamed_addr #8 comdat align 2 {
  %2 = alloca ptr, align 8
  store ptr %0, ptr %2, align 8, !tbaa !116
  ret void
}

; Function Attrs: mustprogress nounwind uwtable
define available_externally void @_ZNSt7__cxx1112basic_stringIcSt11char_traitsIcESaIcEE12_Alloc_hiderC2EPcOS3_(ptr noundef nonnull align 8 dereferenceable(8) %0, ptr noundef %1, ptr noundef nonnull align 1 dereferenceable(1) %2) unnamed_addr #8 align 2 {
  %4 = alloca ptr, align 8
  %5 = alloca ptr, align 8
  %6 = alloca ptr, align 8
  store ptr %0, ptr %4, align 8, !tbaa !119
  store ptr %1, ptr %5, align 8, !tbaa !78
  store ptr %2, ptr %6, align 8, !tbaa !82
  %7 = load ptr, ptr %4, align 8
  %8 = load ptr, ptr %6, align 8, !tbaa !82
  call void @_ZNSaIcEC2ERKS_(ptr noundef nonnull align 1 dereferenceable(1) %7, ptr noundef nonnull align 1 dereferenceable(1) %8) #3
  %9 = getelementptr inbounds nuw %"struct.std::__cxx11::basic_string<char>::_Alloc_hider", ptr %7, i32 0, i32 0
  %10 = load ptr, ptr %5, align 8, !tbaa !78
  store ptr %10, ptr %9, align 8, !tbaa !121
  ret void
}

; Function Attrs: mustprogress nounwind uwtable
define available_externally void @_ZNSaIcEC2Ev(ptr noundef nonnull align 1 dereferenceable(1) %0) unnamed_addr #8 align 2 {
  %2 = alloca ptr, align 8
  store ptr %0, ptr %2, align 8, !tbaa !82
  %3 = load ptr, ptr %2, align 8
  call void @_ZNSt15__new_allocatorIcEC2Ev(ptr noundef nonnull align 1 dereferenceable(1) %3) #3
  ret void
}

; Function Attrs: mustprogress nounwind uwtable
define available_externally noundef ptr @_ZNSt7__cxx1112basic_stringIcSt11char_traitsIcESaIcEE13_M_local_dataEv(ptr noundef nonnull align 8 dereferenceable(32) %0) #8 align 2 {
  %2 = alloca ptr, align 8
  store ptr %0, ptr %2, align 8, !tbaa !43
  %3 = load ptr, ptr %2, align 8
  %4 = getelementptr inbounds nuw %"class.std::__cxx11::basic_string", ptr %3, i32 0, i32 2
  %5 = getelementptr inbounds [16 x i8], ptr %4, i64 0, i64 0
  %6 = call noundef ptr @_ZNSt19__ptr_traits_ptr_toIPccLb0EE10pointer_toERc(ptr noundef nonnull align 1 dereferenceable(1) %5) #3
  ret ptr %6
}

; Function Attrs: mustprogress nounwind uwtable
define linkonce_odr hidden noundef nonnull align 8 dereferenceable(32) ptr @_ZNK6google8protobuf8internal21ExplicitlyConstructedINSt7__cxx1112basic_stringIcSt11char_traitsIcESaIcEEEE3getEv(ptr noundef nonnull align 8 dereferenceable(32) %0) #8 comdat align 2 {
  %2 = alloca ptr, align 8
  store ptr %0, ptr %2, align 8, !tbaa !114
  %3 = load ptr, ptr %2, align 8
  %4 = getelementptr inbounds nuw %"class.google::protobuf::internal::ExplicitlyConstructed", ptr %3, i32 0, i32 0
  ret ptr %4
}

; Function Attrs: alwaysinline mustprogress uwtable
define internal noundef zeroext i1 @_ZN6google8protobuf8internalL17ReadBytesToStringEPNS0_2io16CodedInputStreamEPNSt7__cxx1112basic_stringIcSt11char_traitsIcESaIcEEE(ptr noundef %0, ptr noundef %1) #9 {
  %3 = alloca ptr, align 8
  %4 = alloca ptr, align 8
  %5 = alloca i32, align 4
  store ptr %0, ptr %3, align 8, !tbaa !3
  store ptr %1, ptr %4, align 8, !tbaa !43
  call void @llvm.lifetime.start.p0(i64 4, ptr %5) #3
  %6 = load ptr, ptr %3, align 8, !tbaa !3
  %7 = call noundef zeroext i1 @_ZN6google8protobuf2io16CodedInputStream12ReadVarint32EPj(ptr noundef nonnull align 8 dereferenceable(80) %6, ptr noundef %5)
  br i1 %7, label %8, label %13

8:                                                ; preds = %2
  %9 = load ptr, ptr %3, align 8, !tbaa !3
  %10 = load ptr, ptr %4, align 8, !tbaa !43
  %11 = load i32, ptr %5, align 4, !tbaa !8
  %12 = call noundef zeroext i1 @_ZN6google8protobuf2io16CodedInputStream10ReadStringEPNSt7__cxx1112basic_stringIcSt11char_traitsIcESaIcEEEi(ptr noundef nonnull align 8 dereferenceable(80) %9, ptr noundef %10, i32 noundef %11)
  br label %13

13:                                               ; preds = %8, %2
  %14 = phi i1 [ false, %2 ], [ %12, %8 ]
  call void @llvm.lifetime.end.p0(i64 4, ptr %5) #3
  ret i1 %14
}

; Function Attrs: mustprogress nounwind uwtable
define available_externally void @_ZNSt7__cxx1112basic_stringIcSt11char_traitsIcESaIcEEC2Ev(ptr noundef nonnull align 8 dereferenceable(32) %0) unnamed_addr #8 align 2 personality ptr @__gxx_personality_v0 {
  %2 = alloca ptr, align 8
  %3 = alloca %"class.std::allocator", align 1
  store ptr %0, ptr %2, align 8, !tbaa !43
  %4 = load ptr, ptr %2, align 8
  %5 = getelementptr inbounds nuw %"class.std::__cxx11::basic_string", ptr %4, i32 0, i32 0
  %6 = call noundef ptr @_ZNSt7__cxx1112basic_stringIcSt11char_traitsIcESaIcEE13_M_local_dataEv(ptr noundef nonnull align 8 dereferenceable(32) %4)
  call void @llvm.lifetime.start.p0(i64 1, ptr %3) #3
  call void @_ZNSaIcEC2Ev(ptr noundef nonnull align 1 dereferenceable(1) %3) #3
  invoke void @_ZNSt7__cxx1112basic_stringIcSt11char_traitsIcESaIcEE12_Alloc_hiderC2EPcOS3_(ptr noundef nonnull align 8 dereferenceable(8) %5, ptr noundef %6, ptr noundef nonnull align 1 dereferenceable(1) %3)
          to label %7 unwind label %10

7:                                                ; preds = %1
  call void @_ZNSt15__new_allocatorIcED2Ev(ptr noundef nonnull align 1 dereferenceable(1) %3) #3
  call void @llvm.lifetime.end.p0(i64 1, ptr %3) #3
  %8 = call noundef ptr @_ZNSt7__cxx1112basic_stringIcSt11char_traitsIcESaIcEE17_M_use_local_dataEv(ptr noundef nonnull align 8 dereferenceable(32) %4) #3
  invoke void @_ZNSt7__cxx1112basic_stringIcSt11char_traitsIcESaIcEE13_M_set_lengthEm(ptr noundef nonnull align 8 dereferenceable(32) %4, i64 noundef 0)
          to label %9 unwind label %10

9:                                                ; preds = %7
  ret void

10:                                               ; preds = %7, %1
  %11 = landingpad { ptr, i32 }
          catch ptr null
  %12 = extractvalue { ptr, i32 } %11, 0
  call void @__clang_call_terminate(ptr %12) #18
  unreachable
}

; Function Attrs: mustprogress uwtable
define linkonce_odr hidden noundef nonnull align 8 dereferenceable(32) ptr @_ZN6google8protobuf8internal27GetEmptyStringAlreadyInitedB5cxx11Ev() #4 comdat {
  %1 = call noundef nonnull align 8 dereferenceable(32) ptr @_ZNK6google8protobuf8internal21ExplicitlyConstructedINSt7__cxx1112basic_stringIcSt11char_traitsIcESaIcEEEE3getEv(ptr noundef nonnull align 8 dereferenceable(32) @_ZN6google8protobuf8internal26fixed_address_empty_stringB5cxx11E)
  ret ptr %1
}

; Function Attrs: mustprogress uwtable
define hidden noundef zeroext i1 @_ZN6google8protobuf8internal14WireFormatLite9ReadBytesEPNS0_2io16CodedInputStreamEPPNSt7__cxx1112basic_stringIcSt11char_traitsIcESaIcEEE(ptr noundef %0, ptr noundef %1) #4 align 2 {
  %3 = alloca ptr, align 8
  %4 = alloca ptr, align 8
  store ptr %0, ptr %3, align 8, !tbaa !3
  store ptr %1, ptr %4, align 8, !tbaa !79
  %5 = load ptr, ptr %4, align 8, !tbaa !79
  %6 = load ptr, ptr %5, align 8, !tbaa !43
  %7 = call noundef nonnull align 8 dereferenceable(32) ptr @_ZN6google8protobuf8internal27GetEmptyStringAlreadyInitedB5cxx11Ev()
  %8 = icmp eq ptr %6, %7
  br i1 %8, label %9, label %12

9:                                                ; preds = %2
  %10 = call noalias noundef nonnull ptr @_Znwm(i64 noundef 32) #19
  call void @_ZNSt7__cxx1112basic_stringIcSt11char_traitsIcESaIcEEC2Ev(ptr noundef nonnull align 8 dereferenceable(32) %10) #3
  %11 = load ptr, ptr %4, align 8, !tbaa !79
  store ptr %10, ptr %11, align 8, !tbaa !43
  br label %12

12:                                               ; preds = %9, %2
  %13 = load ptr, ptr %3, align 8, !tbaa !3
  %14 = load ptr, ptr %4, align 8, !tbaa !79
  %15 = load ptr, ptr %14, align 8, !tbaa !43
  %16 = call noundef zeroext i1 @_ZN6google8protobuf8internalL17ReadBytesToStringEPNS0_2io16CodedInputStreamEPNSt7__cxx1112basic_stringIcSt11char_traitsIcESaIcEEE(ptr noundef %13, ptr noundef %15)
  ret i1 %16
}