; Function Attrs: mustprogress uwtable
define hidden noundef zeroext i1 @_ZN6google8protobuf8internal14WireFormatLite9ReadBytesEPNS0_2io16CodedInputStreamEPPNSt7__cxx1112basic_stringIcSt11char_traitsIcESaIcEEE(ptr noundef %0, ptr noundef captures(none) %1) local_unnamed_addr #3 align 2 personality ptr @__gxx_personality_v0 {
  %3 = load ptr, ptr %1, align 8, !tbaa !50
  %4 = icmp eq ptr %3, @_ZN6google8protobuf8internal26fixed_address_empty_stringB5cxx11E
  br i1 %4, label %5, label %9

5:                                                ; preds = %2
  %6 = tail call noalias noundef nonnull dereferenceable(32) ptr @_Znwm(i64 noundef 32) #16
  %7 = getelementptr inbounds nuw i8, ptr %6, i64 16
  store ptr %7, ptr %6, align 8, !tbaa !30
  %8 = getelementptr inbounds nuw i8, ptr %6, i64 8
  store i64 0, ptr %8, align 8, !tbaa !32
  store i8 0, ptr %7, align 1, !tbaa !16
  store ptr %6, ptr %1, align 8, !tbaa !50
  br label %9

9:                                                ; preds = %5, %2
  %10 = phi ptr [ %6, %5 ], [ %3, %2 ]
  %11 = load ptr, ptr %0, align 8, !tbaa !3
  %12 = getelementptr inbounds nuw i8, ptr %0, i64 8
  %13 = load ptr, ptr %12, align 8, !tbaa !14
  %14 = icmp ult ptr %11, %13
  br i1 %14, label %15, label %_ZN6google8protobuf2io16CodedInputStream12ReadVarint32EPj.exit, !prof !15

15:                                               ; preds = %9
  %16 = load i8, ptr %11, align 1, !tbaa !16
  %17 = zext i8 %16 to i32
  %18 = icmp sgt i8 %16, -1
  br i1 %18, label %_ZN6google8protobuf2io16CodedInputStream12ReadVarint32EPj.exit.thread, label %_ZN6google8protobuf2io16CodedInputStream12ReadVarint32EPj.exit

_ZN6google8protobuf2io16CodedInputStream12ReadVarint32EPj.exit.thread: ; preds = %15
  %19 = getelementptr inbounds nuw i8, ptr %11, i64 1
  store ptr %19, ptr %0, align 8, !tbaa !3
  br label %23

_ZN6google8protobuf2io16CodedInputStream12ReadVarint32EPj.exit: ; preds = %9, %15
  %.08.i = phi i32 [ %17, %15 ], [ 0, %9 ]
  %20 = tail call noundef i64 @_ZN6google8protobuf2io16CodedInputStream20ReadVarint32FallbackEj(ptr noundef nonnull align 8 dereferenceable(80) %0, i32 noundef %.08.i)
  %21 = trunc i64 %20 to i32
  %22 = icmp sgt i64 %20, -1
  br i1 %22, label %23, label %_ZN6google8protobuf8internalL17ReadBytesToStringEPNS0_2io16CodedInputStreamEPNSt7__cxx1112basic_stringIcSt11char_traitsIcESaIcEEE.exit

23:                                               ; preds = %_ZN6google8protobuf2io16CodedInputStream12ReadVarint32EPj.exit.thread, %_ZN6google8protobuf2io16CodedInputStream12ReadVarint32EPj.exit
  %.06 = phi i32 [ %17, %_ZN6google8protobuf2io16CodedInputStream12ReadVarint32EPj.exit.thread ], [ %21, %_ZN6google8protobuf2io16CodedInputStream12ReadVarint32EPj.exit ]
  %24 = tail call noundef zeroext i1 @_ZN6google8protobuf2io16CodedInputStream10ReadStringEPNSt7__cxx1112basic_stringIcSt11char_traitsIcESaIcEEEi(ptr noundef nonnull align 8 dereferenceable(80) %0, ptr noundef %10, i32 noundef %.06)
  br label %_ZN6google8protobuf8internalL17ReadBytesToStringEPNS0_2io16CodedInputStreamEPNSt7__cxx1112basic_stringIcSt11char_traitsIcESaIcEEE.exit

_ZN6google8protobuf8internalL17ReadBytesToStringEPNS0_2io16CodedInputStreamEPNSt7__cxx1112basic_stringIcSt11char_traitsIcESaIcEEE.exit: ; preds = %_ZN6google8protobuf2io16CodedInputStream12ReadVarint32EPj.exit, %23
  %25 = phi i1 [ false, %_ZN6google8protobuf2io16CodedInputStream12ReadVarint32EPj.exit ], [ %24, %23 ]
  ret i1 %25
}